(dp0
Vtagprogress
p1
(dp2
S'/media/HDD/Music-old'
p3
(lp4
S'/media/HDD/Music-old/AC_DC/Back in Black'
p5
aS'/media/HDD/Music-old/AC_DC/Ballbreaker'
p6
aS'/media/HDD/Music-old/AC_DC/Black Ice'
p7
aS'/media/HDD/Music-old/AC_DC/Blow Up Your Video'
p8
aS'/media/HDD/Music-old/AC_DC/Dirty Deeds Done Dirt Cheap'
p9
aS'/media/HDD/Music-old/AC_DC/Flick of the Switch'
p10
aS'/media/HDD/Music-old/AC_DC/Fly on the Wall'
p11
aS'/media/HDD/Music-old/AC_DC/For Those About to Rock (We Salute You)'
p12
aS'/media/HDD/Music-old/AC_DC/High Voltage'
p13
aS'/media/HDD/Music-old/AC_DC/Highway to Hell'
p14
aS'/media/HDD/Music-old/AC_DC/Let There Be Rock'
p15
aS'/media/HDD/Music-old/AC_DC/Powerage'
p16
aS'/media/HDD/Music-old/AC_DC/Stiff Upper Lip'
p17
aS'/media/HDD/Music-old/AC_DC/T.N.T_'
p18
aS'/media/HDD/Music-old/AC_DC/The Razors Edge'
p19
aS'/media/HDD/Music-old/AC_DC/Who Made Who'
p20
aS'/media/HDD/Music-old/Africa HiTech/93 Million Miles'
p21
aS'/media/HDD/Music-old/Aoife N\xc3\xad Fhearraigh/Aoife'
p22
aS'/media/HDD/Music-old/Avenged Sevenfold/Avenged Sevenfold'
p23
aS'/media/HDD/Music-old/Avenged Sevenfold/City of Evil'
p24
aS'/media/HDD/Music-old/Basil Poledouris/Conan the Barbarian'
p25
aS'/media/HDD/Music-old/Bear McCreary/Battlestar Galactica_ Season 1'
p26
aS'/media/HDD/Music-old/Bear McCreary/Battlestar Galactica_ Season 2'
p27
aS'/media/HDD/Music-old/Bear McCreary/Battlestar Galactica_ Season 3'
p28
aS'/media/HDD/Music-old/Bear McCreary/Battlestar Galactica_ Season 4'
p29
aS'/media/HDD/Music-old/Bear McCreary/Battlestar Galactica_ The Plan and Razor'
p30
aS'/media/HDD/Music-old/Black Moth Super Rainbow/Cobra Juicy'
p31
aS'/media/HDD/Music-old/Black Moth Super Rainbow/Psychic Love Damage EP'
p32
aS'/media/HDD/Music-old/Black Sabbath/13'
p33
aS'/media/HDD/Music-old/Black Sabbath/Black Sabbath'
p34
aS'/media/HDD/Music-old/Black Sabbath/Born Again'
p35
aS'/media/HDD/Music-old/Black Sabbath/Heaven and Hell'
p36
aS'/media/HDD/Music-old/Black Sabbath/Mob Rules'
p37
aS'/media/HDD/Music-old/Black Sabbath/Paranoid'
p38
aS'/media/HDD/Music-old/Black Sabbath/Tyr'
p39
aS'/media/HDD/Music-old/Black Sabbath/Vol 4'
p40
aS'/media/HDD/Music-old/Bob Dylan/Blonde on Blonde'
p41
aS'/media/HDD/Music-old/Bob Dylan/Highway 61 Revisited'
p42
aS'/media/HDD/Music-old/Bob Dylan/New Morning'
p43
aS"/media/HDD/Music-old/Bob Dylan/The Times They Are A-Changin'"
p44
aS'/media/HDD/Music-old/Cliff Martinez/Drive'
p45
aS'/media/HDD/Music-old/Clutch/Blast Tyrant'
p46
aS'/media/HDD/Music-old/Clutch/Earth Rocker'
p47
aS'/media/HDD/Music-old/Clutch/From Beale Street to Oblivion'
p48
aS'/media/HDD/Music-old/Clutch/Strange Cousins From the West'
p49
aS'/media/HDD/Music-old/Com Truise/Galactic Melt'
p50
aS'/media/HDD/Music-old/Compilations/Duke Nukem_ Music to Score By'
p51
aS'/media/HDD/Music-old/Compilations/Fallout 3_ The Unofficial Soundtrack'
p52
aS'/media/HDD/Music-old/Compilations/Fallout_ New Vegas 104'
p53
aS'/media/HDD/Music-old/Compilations/Fallout_ New Vegas 35'
p54
aS'/media/HDD/Music-old/Compilations/Ghost in the Shell_ Megatech Body.Cd.,Ltd_'
p55
aS'/media/HDD/Music-old/Compilations/Hotline Miami - Official Soundtrack'
p56
aS'/media/HDD/Music-old/Compilations/Hotline Miami 2_ Wrong Number'
p57
aS'/media/HDD/Music-old/Compilations/Metal Gear Solid 2_ Sons of Liberty'
p58
aS'/media/HDD/Music-old/Compilations/Scott Pilgrim vs. The World'
p59
aS'/media/HDD/Music-old/Compilations/Tabletop Audio'
p60
aS'/media/HDD/Music-old/Daft Punk/Discovery'
p61
aS'/media/HDD/Music-old/Daft Punk/TRON_ Legacy'
p62
aS'/media/HDD/Music-old/Darren Korb/Bastion_ Original Soundtrack'
p63
aS'/media/HDD/Music-old/Darren Korb/Transistor_ Original Soundtrack'
p64
aS'/media/HDD/Music-old/David Bowie/Space Oddity'
p65
aS'/media/HDD/Music-old/Disturbed/Indestructible'
p66
aS'/media/HDD/Music-old/DragonForce/Inhuman Rampage'
p67
aS'/media/HDD/Music-old/DragonForce/Sonic Firestorm'
p68
aS'/media/HDD/Music-old/DragonForce/The Power Within'
p69
aS'/media/HDD/Music-old/DragonForce/Valley of the Damned'
p70
aS'/media/HDD/Music-old/Eurythmics/Sweet Dreams (Are Made of This)'
p71
aS'/media/HDD/Music-old/Fenster'
p72
aS'/media/HDD/Music-old/Greg Edmonson/Firefly'
p73
aS'/media/HDD/Music-old/Grimes/Visions'
p74
aS'/media/HDD/Music-old/Guns N\xe2\x80\x99 Roses/Appetite for Destruction'
p75
aS'/media/HDD/Music-old/Guns N\xe2\x80\x99 Roses/Use Your Illusion II'
p76
aS'/media/HDD/Music-old/Harry Gregson-Williams & \xe6\x97\xa5\xe6\xaf\x94\xe9\x87\x8e\xe5\x89\x87\xe5\xbd\xa6/Metal Gear Solid 3_ Snake Eater'
p77
aS'/media/HDD/Music-old/Heaven & Hell/Live From Radio City Music Hall'
p78
aS'/media/HDD/Music-old/I, Cactus/I, Cactus'
p79
aS'/media/HDD/Music-old/Iron Maiden/1981-08-04_ Live in Long Beach, CA, USA'
p80
aS'/media/HDD/Music-old/Iron Maiden/1982-06-29_ The Night of the Living Dead_ Palladium, New York, NY, USA'
p81
aS'/media/HDD/Music-old/Iron Maiden/1996-08-24_ Est\xc3\xa1dio do Pacaemb\xc3\xba, S\xc3\xa3o Paulo, Brazil'
p82
aS'/media/HDD/Music-old/Iron Maiden/A Matter of Life and Death'
p83
aS'/media/HDD/Music-old/Iron Maiden/A Real Dead One'
p84
aS'/media/HDD/Music-old/Iron Maiden/A Real Live One'
p85
aS'/media/HDD/Music-old/Iron Maiden/BBC Archives'
p86
aS'/media/HDD/Music-old/Iron Maiden/Beast over Hammersmith'
p87
aS'/media/HDD/Music-old/Iron Maiden/Best of the Beast'
p88
aS'/media/HDD/Music-old/Iron Maiden/Best of the \xe2\x80\x98B\xe2\x80\x99 Sides'
p89
aS'/media/HDD/Music-old/Iron Maiden/Brave New World'
p90
aS'/media/HDD/Music-old/Iron Maiden/Dance of Death'
p91
aS'/media/HDD/Music-old/Iron Maiden/Death on the Road'
p92
aS'/media/HDD/Music-old/Iron Maiden/Ed Hunter'
p93
aS'/media/HDD/Music-old/Iron Maiden/Edward the Great'
p94
aS'/media/HDD/Music-old/Iron Maiden/En vivo!'
p95
aS'/media/HDD/Music-old/Iron Maiden/Fear of the Dark'
p96
aS'/media/HDD/Music-old/Iron Maiden/Flight 666_ The Original Soundtrack'
p97
aS'/media/HDD/Music-old/Iron Maiden/From Fear to Eternity_ The Best of 1990\xe2\x80\x932010'
p98
aS'/media/HDD/Music-old/Iron Maiden/Iron Maiden'
p99
aS'/media/HDD/Music-old/Iron Maiden/Killers'
p100
aS'/media/HDD/Music-old/Iron Maiden/Live After Death'
p101
aS'/media/HDD/Music-old/Iron Maiden/Live at Donington_ August 22nd 1992'
p102
aS'/media/HDD/Music-old/Iron Maiden/Live!! + One'
p103
aS"/media/HDD/Music-old/Iron Maiden/Maiden England '88"
p104
aS'/media/HDD/Music-old/Iron Maiden/Maiden Japan'
p105
aS'/media/HDD/Music-old/Iron Maiden/No More Lies_ Dance of Death Souvenir EP'
p106
aS'/media/HDD/Music-old/Iron Maiden/No Prayer for the Dying'
p107
aS'/media/HDD/Music-old/Iron Maiden/Piece of Mind'
p108
aS'/media/HDD/Music-old/Iron Maiden/Powerslave'
p109
aS'/media/HDD/Music-old/Iron Maiden/REVELATIONS - Live at the Rainbow'
p110
aS'/media/HDD/Music-old/Iron Maiden/Rock in Rio'
p111
aS'/media/HDD/Music-old/Iron Maiden/Seventh Son of a Seventh Son'
p112
aS'/media/HDD/Music-old/Iron Maiden/Somewhere Back in Time_ The Best of 1980-1989'
p113
aS'/media/HDD/Music-old/Iron Maiden/Somewhere in Time'
p114
aS'/media/HDD/Music-old/Iron Maiden/The Essential Iron Maiden'
p115
aS'/media/HDD/Music-old/Iron Maiden/The Final Frontier'
p116
aS'/media/HDD/Music-old/Iron Maiden/The Number of the Beast'
p117
aS'/media/HDD/Music-old/Iron Maiden/The Soundhouse Tapes and More'
p118
aS'/media/HDD/Music-old/Iron Maiden/The Wicker Man'
p119
aS'/media/HDD/Music-old/Iron Maiden/The X Factor'
p120
aS'/media/HDD/Music-old/Iron Maiden/Virtual XI'
p121
aS'/media/HDD/Music-old/Iron Maiden/Virus'
p122
aS'/media/HDD/Music-old/Jeremy Soule/Guild Wars_ Eye of the North'
p123
aS'/media/HDD/Music-old/Jeremy Soule/Star Wars_ Knights of the Old Republic'
p124
aS'/media/HDD/Music-old/Jeremy Soule/The Elder Scrolls III_ Morrowind'
p125
aS'/media/HDD/Music-old/Jeremy Soule/The Elder Scrolls V_ Skyrim Original Game Soundtrack'
p126
aS'/media/HDD/Music-old/Jim Guthrie/Sword & Sworcery LP_ The Ballad of the Space Babies'
p127
aS'/media/HDD/Music-old/John Williams/Greatest Hits 1969\xe2\x80\x931999'
p128
aS'/media/HDD/Music-old/John Williams/Star Wars Trilogy_ The Original Soundtrack Anthology'
p129
aS'/media/HDD/Music-old/KCE Japan Sound Team/Metal Gear Solid'
p130
aS'/media/HDD/Music-old/Kasabian/Kasabian'
p131
aS'/media/HDD/Music-old/Kavinsky/OutRun'
p132
aS'/media/HDD/Music-old/Lana Del Rey/Born to Die_ The Paradise Edition'
p133
aS'/media/HDD/Music-old/Lazerhawk/Redline'
p134
aS'/media/HDD/Music-old/Lazerhawk/Skull and Shark'
p135
aS'/media/HDD/Music-old/Lazerhawk/Visitors'
p136
aS'/media/HDD/Music-old/Led Zeppelin/[Led Zeppelin IV]'
p137
aS'/media/HDD/Music-old/MD.45/The Craving'
p138
aS'/media/HDD/Music-old/Makeup and Vanity Set/Presents\xe2\x80\xa6 The Protomen'
p139
aS'/media/HDD/Music-old/Masketta Man/UUUU'
p140
aS'/media/HDD/Music-old/Megadeth/Countdown to Extinction'
p141
aS'/media/HDD/Music-old/Megadeth/Cryptic Writings'
p142
aS'/media/HDD/Music-old/Megadeth/Hidden Treasures'
p143
aS'/media/HDD/Music-old/Megadeth/Killing Is My Business\xe2\x80\xa6 and Business Is Good!'
p144
aS'/media/HDD/Music-old/Megadeth/Peace Sells\xe2\x80\xa6 But Who\xe2\x80\x99s Buying_'
p145
aS'/media/HDD/Music-old/Megadeth/Risk'
p146
aS'/media/HDD/Music-old/Megadeth/Rust in Peace'
p147
ass.